; Function Attrs: mustprogress uwtable
define noundef nonnull align 8 dereferenceable(64) ptr @_ZNK6icu_7511Formattable9getStringERNS_13UnicodeStringER10UErrorCode(ptr nocapture noundef nonnull readonly align 8 dereferenceable(112) %this, ptr noundef nonnull returned align 8 dereferenceable(64) %result, ptr nocapture noundef nonnull align 4 dereferenceable(4) %status) local_unnamed_addr #1 align 2 {
entry:
  %fType = getelementptr inbounds i8, ptr %this, i64 40
  %0 = load i32, ptr %fType, align 8
  %cmp.not = icmp eq i32 %0, 3
  br i1 %cmp.not, label %if.else, label %if.then

if.then:                                          ; preds = %entry
  %1 = load i32, ptr %status, align 4
  %cmp.i.i = icmp sgt i32 %1, 0
  br i1 %cmp.i.i, label %_ZN6icu_75L8setErrorER10UErrorCodeS0_.exit, label %if.then.i

if.then.i:                                        ; preds = %if.then
  store i32 3, ptr %status, align 4
  br label %_ZN6icu_75L8setErrorER10UErrorCodeS0_.exit

_ZN6icu_75L8setErrorER10UErrorCodeS0_.exit:       ; preds = %if.then, %if.then.i
  tail call void @_ZN6icu_7513UnicodeString10setToBogusEv(ptr noundef nonnull align 8 dereferenceable(64) %result)
  br label %if.end6

if.else:                                          ; preds = %entry
  %fValue = getelementptr inbounds i8, ptr %this, i64 8
  %2 = load ptr, ptr %fValue, align 8
  %cmp2 = icmp eq ptr %2, null
  br i1 %cmp2, label %if.then3, label %if.else4

if.then3:                                         ; preds = %if.else
  %3 = load i32, ptr %status, align 4
  %cmp.i.i4 = icmp sgt i32 %3, 0
  br i1 %cmp.i.i4, label %if.end6, label %if.then.i5

if.then.i5:                                       ; preds = %if.then3
  store i32 7, ptr %status, align 4
  br label %if.end6

if.else4:                                         ; preds = %if.else
  %call = tail call noundef nonnull align 8 dereferenceable(64) ptr @_ZN6icu_7513UnicodeStringaSERKS0_(ptr noundef nonnull align 8 dereferenceable(64) %result, ptr noundef nonnull align 8 dereferenceable(64) %2)
  br label %if.end6

if.end6:                                          ; preds = %if.then.i5, %if.then3, %if.else4, %_ZN6icu_75L8setErrorER10UErrorCodeS0_.exit
  ret ptr %result
}